; Function Attrs: mustprogress nofree norecurse nosync nounwind willreturn memory(argmem: write) uwtable
define void @_ZN3gmx24ParrinelloRahmanBarostat22registerEnergyCallbackENS_20EnergySignallerEventE(ptr dead_on_unwind noalias writable writeonly sret(%"class.std::optional.17") align 8 captures(none) initializes((32, 33)) %0, ptr noundef nonnull align 8 dereferenceable(344) %1, i32 noundef %2) unnamed_addr #4 align 2 personality ptr @__gxx_personality_v0 {
  %4 = icmp eq i32 %2, 0
  br i1 %4, label %5, label %10

5:                                                ; preds = %3
  %6 = ptrtoint ptr %1 to i64
  %7 = getelementptr inbounds nuw i8, ptr %0, i64 16
  %8 = getelementptr inbounds nuw i8, ptr %0, i64 24
  %9 = getelementptr inbounds nuw i8, ptr %0, i64 8
  store i64 0, ptr %9, align 8
  store i64 %6, ptr %0, align 8, !tbaa !40
  store ptr @"_ZNSt17_Function_handlerIFvldEZN3gmx24ParrinelloRahmanBarostat22registerEnergyCallbackENS1_20EnergySignallerEventEE3$_0E9_M_invokeERKSt9_Any_dataOlOd", ptr %8, align 8, !tbaa !184
  store ptr @"_ZNSt17_Function_handlerIFvldEZN3gmx24ParrinelloRahmanBarostat22registerEnergyCallbackENS1_20EnergySignallerEventEE3$_0E10_M_managerERSt9_Any_dataRKS6_St18_Manager_operation", ptr %7, align 8, !tbaa !45
  br label %10

10:                                               ; preds = %3, %5
  %.sink = phi i8 [ 1, %5 ], [ 0, %3 ]
  %11 = getelementptr inbounds nuw i8, ptr %0, i64 32
  store i8 %.sink, ptr %11, align 8, !tbaa !186
  ret void
}